target datalayout = "e-m:e-p270:32:32-p271:32:32-p272:64:64-i64:64-i128:128-f80:128-n8:16:32:64-S128"
target triple = "x86_64-pc-linux-gnu"

; Function Attrs: nounwind uwtable
define internal i32 @find_positions64(i32 noundef %0, ptr noundef %1, i64 noundef %2, ptr noundef %3, ptr noundef %4) #0 {
  %6 = alloca i32, align 4
  %7 = alloca i32, align 4
  %8 = alloca ptr, align 8
  %9 = alloca i64, align 8
  %10 = alloca ptr, align 8
  %11 = alloca ptr, align 8
  %12 = alloca i64, align 8
  %13 = alloca i64, align 8
  %14 = alloca i64, align 8
  %15 = alloca i64, align 8
  %16 = alloca [76 x i8], align 16
  store i32 %0, ptr %7, align 4
  store ptr %1, ptr %8, align 8
  store i64 %2, ptr %9, align 8
  store ptr %3, ptr %10, align 8
  store ptr %4, ptr %11, align 8
  %17 = load ptr, ptr %8, align 8
  %18 = getelementptr inbounds i8, ptr %17, i64 12
  %19 = load i8, ptr %18, align 1
  %20 = zext i8 %19 to i32
  %21 = load ptr, ptr %8, align 8
  %22 = getelementptr inbounds i8, ptr %21, i64 13
  %23 = load i8, ptr %22, align 1
  %24 = zext i8 %23 to i32
  %25 = shl i32 %24, 8
  %26 = or i32 %20, %25
  %27 = load ptr, ptr %8, align 8
  %28 = getelementptr inbounds i8, ptr %27, i64 14
  %29 = load i8, ptr %28, align 1
  %30 = zext i8 %29 to i32
  %31 = load ptr, ptr %8, align 8
  %32 = getelementptr inbounds i8, ptr %31, i64 15
  %33 = load i8, ptr %32, align 1
  %34 = zext i8 %33 to i32
  %35 = shl i32 %34, 8
  %36 = or i32 %30, %35
  %37 = shl i32 %36, 16
  %38 = or i32 %26, %37
  %39 = sext i32 %38 to i64
  %40 = and i64 %39, 4294967295
  store i64 %40, ptr %12, align 8
  %41 = load ptr, ptr %8, align 8
  %42 = getelementptr inbounds i8, ptr %41, i64 16
  %43 = load i8, ptr %42, align 1
  %44 = zext i8 %43 to i32
  %45 = load ptr, ptr %8, align 8
  %46 = getelementptr inbounds i8, ptr %45, i64 17
  %47 = load i8, ptr %46, align 1
  %48 = zext i8 %47 to i32
  %49 = shl i32 %48, 8
  %50 = or i32 %44, %49
  %51 = load ptr, ptr %8, align 8
  %52 = getelementptr inbounds i8, ptr %51, i64 18
  %53 = load i8, ptr %52, align 1
  %54 = zext i8 %53 to i32
  %55 = load ptr, ptr %8, align 8
  %56 = getelementptr inbounds i8, ptr %55, i64 19
  %57 = load i8, ptr %56, align 1
  %58 = zext i8 %57 to i32
  %59 = shl i32 %58, 8
  %60 = or i32 %54, %59
  %61 = shl i32 %60, 16
  %62 = or i32 %50, %61
  %63 = sext i32 %62 to i64
  %64 = and i64 %63, 4294967295
  store i64 %64, ptr %13, align 8
  %65 = load ptr, ptr %8, align 8
  %66 = getelementptr inbounds i8, ptr %65, i64 10
  %67 = load i8, ptr %66, align 1
  %68 = zext i8 %67 to i32
  %69 = load ptr, ptr %8, align 8
  %70 = getelementptr inbounds i8, ptr %69, i64 11
  %71 = load i8, ptr %70, align 1
  %72 = zext i8 %71 to i32
  %73 = shl i32 %72, 8
  %74 = or i32 %68, %73
  %75 = sext i32 %74 to i64
  store i64 %75, ptr %14, align 8
  %76 = load i64, ptr %12, align 8
  %77 = load i64, ptr %13, align 8
  %78 = add nsw i64 %76, %77
  %79 = load i64, ptr %9, align 8
  %80 = icmp ne i64 %78, %79
  br i1 %80, label %81, label %361

81:                                               ; preds = %5
  %82 = load i64, ptr %9, align 8
  %83 = sub i64 %82, 76
  store i64 %83, ptr %15, align 8
  %84 = icmp sge i64 %83, 0
  br i1 %84, label %85, label %361

85:                                               ; preds = %81
  %86 = load i32, ptr %7, align 4
  %87 = load i64, ptr %15, align 8
  %88 = getelementptr inbounds [76 x i8], ptr %16, i64 0, i64 0
  %89 = call zeroext i8 @readAt(i32 noundef %86, i64 noundef %87, i32 noundef 76, ptr noundef %88)
  %90 = zext i8 %89 to i32
  %91 = icmp ne i32 %90, 0
  br i1 %91, label %92, label %361

92:                                               ; preds = %85
  %93 = getelementptr inbounds [76 x i8], ptr %16, i64 0, i64 0
  %94 = getelementptr inbounds i8, ptr %93, i64 56
  %95 = getelementptr inbounds i8, ptr %94, i64 0
  %96 = load i8, ptr %95, align 1
  %97 = zext i8 %96 to i32
  %98 = icmp eq i32 %97, 80
  %99 = zext i1 %98 to i32
  %100 = getelementptr inbounds [76 x i8], ptr %16, i64 0, i64 0
  %101 = getelementptr inbounds i8, ptr %100, i64 56
  %102 = getelementptr inbounds i8, ptr %101, i64 1
  %103 = load i8, ptr %102, align 1
  %104 = zext i8 %103 to i32
  %105 = icmp eq i32 %104, 75
  %106 = zext i1 %105 to i32
  %107 = and i32 %99, %106
  %108 = getelementptr inbounds [76 x i8], ptr %16, i64 0, i64 0
  %109 = getelementptr inbounds i8, ptr %108, i64 56
  %110 = getelementptr inbounds i8, ptr %109, i64 2
  %111 = load i8, ptr %110, align 1
  %112 = zext i8 %111 to i32
  %113 = icmp eq i32 %112, 6
  %114 = zext i1 %113 to i32
  %115 = and i32 %107, %114
  %116 = getelementptr inbounds [76 x i8], ptr %16, i64 0, i64 0
  %117 = getelementptr inbounds i8, ptr %116, i64 56
  %118 = getelementptr inbounds i8, ptr %117, i64 3
  %119 = load i8, ptr %118, align 1
  %120 = zext i8 %119 to i32
  %121 = icmp eq i32 %120, 7
  %122 = zext i1 %121 to i32
  %123 = and i32 %115, %122
  %124 = icmp ne i32 %123, 0
  br i1 %124, label %125, label %361

125:                                              ; preds = %92
  %126 = getelementptr inbounds [76 x i8], ptr %16, i64 0, i64 0
  %127 = getelementptr inbounds i8, ptr %126, i64 56
  %128 = getelementptr inbounds i8, ptr %127, i64 4
  %129 = load i8, ptr %128, align 1
  %130 = zext i8 %129 to i32
  %131 = getelementptr inbounds [76 x i8], ptr %16, i64 0, i64 0
  %132 = getelementptr inbounds i8, ptr %131, i64 56
  %133 = getelementptr inbounds i8, ptr %132, i64 5
  %134 = load i8, ptr %133, align 1
  %135 = zext i8 %134 to i32
  %136 = shl i32 %135, 8
  %137 = or i32 %130, %136
  %138 = getelementptr inbounds [76 x i8], ptr %16, i64 0, i64 0
  %139 = getelementptr inbounds i8, ptr %138, i64 56
  %140 = getelementptr inbounds i8, ptr %139, i64 6
  %141 = load i8, ptr %140, align 1
  %142 = zext i8 %141 to i32
  %143 = getelementptr inbounds [76 x i8], ptr %16, i64 0, i64 0
  %144 = getelementptr inbounds i8, ptr %143, i64 56
  %145 = getelementptr inbounds i8, ptr %144, i64 7
  %146 = load i8, ptr %145, align 1
  %147 = zext i8 %146 to i32
  %148 = shl i32 %147, 8
  %149 = or i32 %142, %148
  %150 = shl i32 %149, 16
  %151 = or i32 %137, %150
  %152 = sext i32 %151 to i64
  %153 = and i64 %152, 4294967295
  %154 = load ptr, ptr %8, align 8
  %155 = getelementptr inbounds i8, ptr %154, i64 6
  %156 = load i8, ptr %155, align 1
  %157 = zext i8 %156 to i32
  %158 = load ptr, ptr %8, align 8
  %159 = getelementptr inbounds i8, ptr %158, i64 7
  %160 = load i8, ptr %159, align 1
  %161 = zext i8 %160 to i32
  %162 = shl i32 %161, 8
  %163 = or i32 %157, %162
  %164 = sext i32 %163 to i64
  %165 = icmp eq i64 %153, %164
  br i1 %165, label %166, label %361

166:                                              ; preds = %125
  %167 = load i32, ptr %7, align 4
  %168 = getelementptr inbounds [76 x i8], ptr %16, i64 0, i64 0
  %169 = load i64, ptr %15, align 8
  %170 = load i64, ptr %12, align 8
  %171 = load i64, ptr %13, align 8
  %172 = load i64, ptr %14, align 8
  %173 = call zeroext i8 @is_zip64_endhdr(i32 noundef %167, ptr noundef %168, i64 noundef %169, i64 noundef %170, i64 noundef %171, i64 noundef %172)
  %174 = zext i8 %173 to i32
  %175 = icmp ne i32 %174, 0
  br i1 %175, label %253, label %176

176:                                              ; preds = %166
  %177 = getelementptr inbounds [76 x i8], ptr %16, i64 0, i64 0
  %178 = getelementptr inbounds i8, ptr %177, i64 56
  %179 = getelementptr inbounds i8, ptr %178, i64 8
  %180 = load i8, ptr %179, align 1
  %181 = zext i8 %180 to i32
  %182 = getelementptr inbounds [76 x i8], ptr %16, i64 0, i64 0
  %183 = getelementptr inbounds i8, ptr %182, i64 56
  %184 = getelementptr inbounds i8, ptr %183, i64 9
  %185 = load i8, ptr %184, align 1
  %186 = zext i8 %185 to i32
  %187 = shl i32 %186, 8
  %188 = or i32 %181, %187
  %189 = getelementptr inbounds [76 x i8], ptr %16, i64 0, i64 0
  %190 = getelementptr inbounds i8, ptr %189, i64 56
  %191 = getelementptr inbounds i8, ptr %190, i64 10
  %192 = load i8, ptr %191, align 1
  %193 = zext i8 %192 to i32
  %194 = getelementptr inbounds [76 x i8], ptr %16, i64 0, i64 0
  %195 = getelementptr inbounds i8, ptr %194, i64 56
  %196 = getelementptr inbounds i8, ptr %195, i64 11
  %197 = load i8, ptr %196, align 1
  %198 = zext i8 %197 to i32
  %199 = shl i32 %198, 8
  %200 = or i32 %193, %199
  %201 = shl i32 %200, 16
  %202 = or i32 %188, %201
  %203 = sext i32 %202 to i64
  %204 = and i64 %203, 4294967295
  %205 = getelementptr inbounds [76 x i8], ptr %16, i64 0, i64 0
  %206 = getelementptr inbounds i8, ptr %205, i64 56
  %207 = getelementptr inbounds i8, ptr %206, i64 12
  %208 = load i8, ptr %207, align 1
  %209 = zext i8 %208 to i32
  %210 = getelementptr inbounds [76 x i8], ptr %16, i64 0, i64 0
  %211 = getelementptr inbounds i8, ptr %210, i64 56
  %212 = getelementptr inbounds i8, ptr %211, i64 13
  %213 = load i8, ptr %212, align 1
  %214 = zext i8 %213 to i32
  %215 = shl i32 %214, 8
  %216 = or i32 %209, %215
  %217 = getelementptr inbounds [76 x i8], ptr %16, i64 0, i64 0
  %218 = getelementptr inbounds i8, ptr %217, i64 56
  %219 = getelementptr inbounds i8, ptr %218, i64 14
  %220 = load i8, ptr %219, align 1
  %221 = zext i8 %220 to i32
  %222 = getelementptr inbounds [76 x i8], ptr %16, i64 0, i64 0
  %223 = getelementptr inbounds i8, ptr %222, i64 56
  %224 = getelementptr inbounds i8, ptr %223, i64 15
  %225 = load i8, ptr %224, align 1
  %226 = zext i8 %225 to i32
  %227 = shl i32 %226, 8
  %228 = or i32 %221, %227
  %229 = shl i32 %228, 16
  %230 = or i32 %216, %229
  %231 = sext i32 %230 to i64
  %232 = and i64 %231, 4294967295
  %233 = shl i64 %232, 32
  %234 = or i64 %204, %233
  store i64 %234, ptr %15, align 8
  %235 = icmp sge i64 %234, 0
  br i1 %235, label %236, label %361

236:                                              ; preds = %176
  %237 = load i32, ptr %7, align 4
  %238 = load i64, ptr %15, align 8
  %239 = getelementptr inbounds [76 x i8], ptr %16, i64 0, i64 0
  %240 = call zeroext i8 @readAt(i32 noundef %237, i64 noundef %238, i32 noundef 56, ptr noundef %239)
  %241 = zext i8 %240 to i32
  %242 = icmp ne i32 %241, 0
  br i1 %242, label %243, label %361

243:                                              ; preds = %236
  %244 = load i32, ptr %7, align 4
  %245 = getelementptr inbounds [76 x i8], ptr %16, i64 0, i64 0
  %246 = load i64, ptr %15, align 8
  %247 = load i64, ptr %12, align 8
  %248 = load i64, ptr %13, align 8
  %249 = load i64, ptr %14, align 8
  %250 = call zeroext i8 @is_zip64_endhdr(i32 noundef %244, ptr noundef %245, i64 noundef %246, i64 noundef %247, i64 noundef %248, i64 noundef %249)
  %251 = zext i8 %250 to i32
  %252 = icmp ne i32 %251, 0
  br i1 %252, label %253, label %361

253:                                              ; preds = %243, %166
  %254 = load i64, ptr %15, align 8
  %255 = getelementptr inbounds [76 x i8], ptr %16, i64 0, i64 0
  %256 = getelementptr inbounds i8, ptr %255, i64 40
  %257 = load i8, ptr %256, align 8
  %258 = zext i8 %257 to i32
  %259 = getelementptr inbounds [76 x i8], ptr %16, i64 0, i64 0
  %260 = getelementptr inbounds i8, ptr %259, i64 41
  %261 = load i8, ptr %260, align 1
  %262 = zext i8 %261 to i32
  %263 = shl i32 %262, 8
  %264 = or i32 %258, %263
  %265 = getelementptr inbounds [76 x i8], ptr %16, i64 0, i64 0
  %266 = getelementptr inbounds i8, ptr %265, i64 42
  %267 = load i8, ptr %266, align 2
  %268 = zext i8 %267 to i32
  %269 = getelementptr inbounds [76 x i8], ptr %16, i64 0, i64 0
  %270 = getelementptr inbounds i8, ptr %269, i64 43
  %271 = load i8, ptr %270, align 1
  %272 = zext i8 %271 to i32
  %273 = shl i32 %272, 8
  %274 = or i32 %268, %273
  %275 = shl i32 %274, 16
  %276 = or i32 %264, %275
  %277 = sext i32 %276 to i64
  %278 = and i64 %277, 4294967295
  %279 = getelementptr inbounds [76 x i8], ptr %16, i64 0, i64 0
  %280 = getelementptr inbounds i8, ptr %279, i64 44
  %281 = load i8, ptr %280, align 4
  %282 = zext i8 %281 to i32
  %283 = getelementptr inbounds [76 x i8], ptr %16, i64 0, i64 0
  %284 = getelementptr inbounds i8, ptr %283, i64 45
  %285 = load i8, ptr %284, align 1
  %286 = zext i8 %285 to i32
  %287 = shl i32 %286, 8
  %288 = or i32 %282, %287
  %289 = getelementptr inbounds [76 x i8], ptr %16, i64 0, i64 0
  %290 = getelementptr inbounds i8, ptr %289, i64 46
  %291 = load i8, ptr %290, align 2
  %292 = zext i8 %291 to i32
  %293 = getelementptr inbounds [76 x i8], ptr %16, i64 0, i64 0
  %294 = getelementptr inbounds i8, ptr %293, i64 47
  %295 = load i8, ptr %294, align 1
  %296 = zext i8 %295 to i32
  %297 = shl i32 %296, 8
  %298 = or i32 %292, %297
  %299 = shl i32 %298, 16
  %300 = or i32 %288, %299
  %301 = sext i32 %300 to i64
  %302 = and i64 %301, 4294967295
  %303 = shl i64 %302, 32
  %304 = or i64 %278, %303
  %305 = sub nsw i64 %254, %304
  %306 = load ptr, ptr %11, align 8
  store i64 %305, ptr %306, align 8
  %307 = load ptr, ptr %11, align 8
  %308 = load i64, ptr %307, align 8
  %309 = getelementptr inbounds [76 x i8], ptr %16, i64 0, i64 0
  %310 = getelementptr inbounds i8, ptr %309, i64 48
  %311 = load i8, ptr %310, align 16
  %312 = zext i8 %311 to i32
  %313 = getelementptr inbounds [76 x i8], ptr %16, i64 0, i64 0
  %314 = getelementptr inbounds i8, ptr %313, i64 49
  %315 = load i8, ptr %314, align 1
  %316 = zext i8 %315 to i32
  %317 = shl i32 %316, 8
  %318 = or i32 %312, %317
  %319 = getelementptr inbounds [76 x i8], ptr %16, i64 0, i64 0
  %320 = getelementptr inbounds i8, ptr %319, i64 50
  %321 = load i8, ptr %320, align 2
  %322 = zext i8 %321 to i32
  %323 = getelementptr inbounds [76 x i8], ptr %16, i64 0, i64 0
  %324 = getelementptr inbounds i8, ptr %323, i64 51
  %325 = load i8, ptr %324, align 1
  %326 = zext i8 %325 to i32
  %327 = shl i32 %326, 8
  %328 = or i32 %322, %327
  %329 = shl i32 %328, 16
  %330 = or i32 %318, %329
  %331 = sext i32 %330 to i64
  %332 = and i64 %331, 4294967295
  %333 = getelementptr inbounds [76 x i8], ptr %16, i64 0, i64 0
  %334 = getelementptr inbounds i8, ptr %333, i64 52
  %335 = load i8, ptr %334, align 4
  %336 = zext i8 %335 to i32
  %337 = getelementptr inbounds [76 x i8], ptr %16, i64 0, i64 0
  %338 = getelementptr inbounds i8, ptr %337, i64 53
  %339 = load i8, ptr %338, align 1
  %340 = zext i8 %339 to i32
  %341 = shl i32 %340, 8
  %342 = or i32 %336, %341
  %343 = getelementptr inbounds [76 x i8], ptr %16, i64 0, i64 0
  %344 = getelementptr inbounds i8, ptr %343, i64 54
  %345 = load i8, ptr %344, align 2
  %346 = zext i8 %345 to i32
  %347 = getelementptr inbounds [76 x i8], ptr %16, i64 0, i64 0
  %348 = getelementptr inbounds i8, ptr %347, i64 55
  %349 = load i8, ptr %348, align 1
  %350 = zext i8 %349 to i32
  %351 = shl i32 %350, 8
  %352 = or i32 %346, %351
  %353 = shl i32 %352, 16
  %354 = or i32 %342, %353
  %355 = sext i32 %354 to i64
  %356 = and i64 %355, 4294967295
  %357 = shl i64 %356, 32
  %358 = or i64 %332, %357
  %359 = sub nsw i64 %308, %358
  %360 = load ptr, ptr %10, align 8
  store i64 %359, ptr %360, align 8
  br label %380

361:                                              ; preds = %243, %236, %176, %125, %92, %85, %81, %5
  %362 = load i32, ptr %7, align 4
  %363 = load i64, ptr %9, align 8
  %364 = load i64, ptr %12, align 8
  %365 = load i64, ptr %13, align 8
  %366 = load i64, ptr %14, align 8
  %367 = call zeroext i8 @is_valid_end_header(i32 noundef %362, i64 noundef %363, i64 noundef %364, i64 noundef %365, i64 noundef %366)
  %368 = icmp ne i8 %367, 0
  br i1 %368, label %370, label %369

369:                                              ; preds = %361
  store i32 -1, ptr %6, align 4
  br label %381

370:                                              ; preds = %361
  %371 = load i64, ptr %9, align 8
  %372 = load i64, ptr %12, align 8
  %373 = sub nsw i64 %371, %372
  %374 = load ptr, ptr %11, align 8
  store i64 %373, ptr %374, align 8
  %375 = load ptr, ptr %11, align 8
  %376 = load i64, ptr %375, align 8
  %377 = load i64, ptr %13, align 8
  %378 = sub nsw i64 %376, %377
  %379 = load ptr, ptr %10, align 8
  store i64 %378, ptr %379, align 8
  br label %380

380:                                              ; preds = %370, %253
  store i32 0, ptr %6, align 4
  br label %381

381:                                              ; preds = %380, %369
  %382 = load i32, ptr %6, align 4
  ret i32 %382
}