; Function Attrs: nounwind uwtable
define internal fastcc range(i32 -1, 1) i32 @find_positions64(i32 noundef %0, ptr nocapture noundef readonly %1, i64 noundef %2, ptr nocapture noundef writeonly %3, ptr nocapture noundef writeonly %4) unnamed_addr #0 {
  %6 = alloca [76 x i8], align 16
  %7 = getelementptr inbounds i8, ptr %1, i64 12
  %8 = load i16, ptr %7, align 1
  %9 = zext i16 %8 to i64
  %10 = getelementptr inbounds i8, ptr %1, i64 14
  %11 = load i16, ptr %10, align 1
  %12 = zext i16 %11 to i64
  %13 = shl nuw nsw i64 %12, 16
  %14 = or disjoint i64 %13, %9
  %15 = getelementptr inbounds i8, ptr %1, i64 16
  %16 = load i16, ptr %15, align 1
  %17 = zext i16 %16 to i64
  %18 = getelementptr inbounds i8, ptr %1, i64 18
  %19 = load i16, ptr %18, align 1
  %20 = zext i16 %19 to i64
  %21 = shl nuw nsw i64 %20, 16
  %22 = or disjoint i64 %21, %17
  %23 = getelementptr inbounds i8, ptr %1, i64 10
  %24 = load i8, ptr %23, align 1
  %25 = zext i8 %24 to i64
  %26 = getelementptr inbounds i8, ptr %1, i64 11
  %27 = load i8, ptr %26, align 1
  %28 = zext i8 %27 to i64
  %29 = shl nuw nsw i64 %28, 8
  %30 = or disjoint i64 %29, %25
  %31 = add nuw nsw i64 %22, %14
  %.not = icmp eq i64 %31, %2
  br i1 %.not, label %readAt.exit.thread, label %32

32:                                               ; preds = %5
  %33 = add i64 %2, -76
  %34 = icmp sgt i64 %33, -1
  br i1 %34, label %35, label %readAt.exit.thread

35:                                               ; preds = %32
  %36 = tail call i64 @lseek64(i32 noundef %0, i64 noundef %33, i32 noundef 0) #14
  %37 = icmp eq i64 %36, %33
  br i1 %37, label %readAt.exit, label %readAt.exit.thread

readAt.exit:                                      ; preds = %35
  %38 = call i64 @read(i32 noundef %0, ptr noundef nonnull %6, i64 noundef 76) #14
  %.not57 = icmp eq i64 %38, 76
  %39 = getelementptr inbounds i8, ptr %6, i64 56
  %40 = load i32, ptr %39, align 8
  %41 = icmp eq i32 %40, 117853008
  %or.cond = select i1 %.not57, i1 %41, i1 false
  br i1 %or.cond, label %42, label %readAt.exit.thread

42:                                               ; preds = %readAt.exit
  %43 = getelementptr inbounds i8, ptr %6, i64 60
  %44 = load i16, ptr %43, align 4
  %45 = zext i16 %44 to i64
  %46 = getelementptr inbounds i8, ptr %6, i64 62
  %47 = load i16, ptr %46, align 2
  %48 = zext i16 %47 to i64
  %49 = shl nuw nsw i64 %48, 16
  %50 = or disjoint i64 %49, %45
  %51 = getelementptr inbounds i8, ptr %1, i64 6
  %52 = load i16, ptr %51, align 1
  %53 = zext i16 %52 to i64
  %54 = icmp eq i64 %50, %53
  br i1 %54, label %55, label %readAt.exit.thread

55:                                               ; preds = %42
  %56 = load i32, ptr %6, align 16
  %57 = icmp eq i32 %56, 101075792
  br i1 %57, label %58, label %is_zip64_endhdr.exit.thread

58:                                               ; preds = %55
  %59 = getelementptr inbounds i8, ptr %6, i64 40
  %60 = load i32, ptr %59, align 8
  %61 = zext i32 %60 to i64
  %62 = getelementptr inbounds i8, ptr %6, i64 44
  %63 = load i32, ptr %62, align 4
  %64 = zext i32 %63 to i64
  %65 = shl nuw i64 %64, 32
  %66 = or disjoint i64 %65, %61
  %67 = getelementptr inbounds i8, ptr %6, i64 48
  %68 = load i32, ptr %67, align 16
  %69 = zext i32 %68 to i64
  %70 = getelementptr inbounds i8, ptr %6, i64 52
  %71 = load i32, ptr %70, align 4
  %72 = zext i32 %71 to i64
  %73 = shl nuw i64 %72, 32
  %74 = or disjoint i64 %73, %69
  %75 = getelementptr inbounds i8, ptr %6, i64 32
  %76 = load i32, ptr %75, align 16
  %77 = zext i32 %76 to i64
  %78 = getelementptr inbounds i8, ptr %6, i64 36
  %79 = load i32, ptr %78, align 4
  %80 = zext i32 %79 to i64
  %81 = shl nuw i64 %80, 32
  %82 = or disjoint i64 %81, %77
  %83 = icmp eq i64 %66, %14
  %84 = icmp eq i64 %14, 4294967295
  %or.cond.i = or i1 %84, %83
  %85 = trunc i32 %60 to i16
  %86 = lshr i32 %60, 16
  %87 = trunc nuw i32 %86 to i16
  %88 = trunc i32 %63 to i16
  %89 = lshr i32 %63, 16
  %90 = trunc nuw i32 %89 to i16
  %91 = trunc i32 %68 to i16
  %92 = lshr i32 %68, 16
  %93 = trunc nuw i32 %92 to i16
  %94 = trunc i32 %71 to i16
  %95 = lshr i32 %71, 16
  %96 = trunc nuw i32 %95 to i16
  br i1 %or.cond.i, label %97, label %is_zip64_endhdr.exit.thread

97:                                               ; preds = %58
  %98 = icmp eq i64 %74, %22
  %99 = icmp eq i64 %22, 4294967295
  %or.cond3.i = or i1 %99, %98
  br i1 %or.cond3.i, label %100, label %is_zip64_endhdr.exit.thread

100:                                              ; preds = %97
  %101 = icmp eq i64 %82, %30
  %102 = icmp eq i64 %30, 65535
  %or.cond5.i = or i1 %102, %101
  br i1 %or.cond5.i, label %is_zip64_endhdr.exit, label %is_zip64_endhdr.exit.thread

is_zip64_endhdr.exit:                             ; preds = %100
  %103 = tail call fastcc zeroext i8 @is_valid_end_header(i32 noundef %0, i64 noundef %33, i64 noundef %66, i64 noundef %74)
  %.not50 = icmp eq i8 %103, 0
  br i1 %.not50, label %is_zip64_endhdr.exit.thread, label %127

is_zip64_endhdr.exit.thread:                      ; preds = %55, %100, %97, %58, %is_zip64_endhdr.exit
  %104 = getelementptr inbounds i8, ptr %6, i64 64
  %105 = load i16, ptr %104, align 16
  %106 = zext i16 %105 to i64
  %107 = getelementptr inbounds i8, ptr %6, i64 66
  %108 = load i16, ptr %107, align 2
  %109 = zext i16 %108 to i64
  %110 = shl nuw nsw i64 %109, 16
  %111 = or disjoint i64 %110, %106
  %112 = getelementptr inbounds i8, ptr %6, i64 68
  %113 = load i16, ptr %112, align 4
  %114 = zext i16 %113 to i64
  %115 = getelementptr inbounds i8, ptr %6, i64 70
  %116 = load i16, ptr %115, align 2
  %117 = zext i16 %116 to i64
  %118 = shl nuw i64 %117, 48
  %119 = shl nuw nsw i64 %114, 32
  %120 = or disjoint i64 %118, %119
  %121 = or disjoint i64 %111, %120
  %122 = icmp sgt i64 %118, -1
  br i1 %122, label %123, label %readAt.exit.thread

123:                                              ; preds = %is_zip64_endhdr.exit.thread
  %124 = call fastcc zeroext i8 @readAt(i32 noundef %0, i64 noundef %121, i32 noundef 56, ptr noundef nonnull %6)
  %.not51 = icmp eq i8 %124, 0
  br i1 %.not51, label %readAt.exit.thread, label %125

125:                                              ; preds = %123
  %126 = call fastcc zeroext i8 @is_zip64_endhdr(i32 noundef %0, ptr noundef nonnull %6, i64 noundef %121, i64 noundef %14, i64 noundef %22, i64 noundef %30)
  %.not52 = icmp eq i8 %126, 0
  br i1 %.not52, label %readAt.exit.thread, label %._crit_edge

._crit_edge:                                      ; preds = %125
  %.phi.trans.insert = getelementptr inbounds i8, ptr %6, i64 40
  %.pre = load i16, ptr %.phi.trans.insert, align 8
  %.phi.trans.insert58 = getelementptr inbounds i8, ptr %6, i64 42
  %.pre59 = load i16, ptr %.phi.trans.insert58, align 2
  %.phi.trans.insert60 = getelementptr inbounds i8, ptr %6, i64 44
  %.pre61 = load i16, ptr %.phi.trans.insert60, align 4
  %.phi.trans.insert62 = getelementptr inbounds i8, ptr %6, i64 46
  %.pre63 = load i16, ptr %.phi.trans.insert62, align 2
  %.phi.trans.insert64 = getelementptr inbounds i8, ptr %6, i64 48
  %.pre65 = load i16, ptr %.phi.trans.insert64, align 16
  %.phi.trans.insert66 = getelementptr inbounds i8, ptr %6, i64 50
  %.pre67 = load i16, ptr %.phi.trans.insert66, align 2
  %.phi.trans.insert68 = getelementptr inbounds i8, ptr %6, i64 52
  %.pre69 = load i16, ptr %.phi.trans.insert68, align 4
  %.phi.trans.insert70 = getelementptr inbounds i8, ptr %6, i64 54
  %.pre71 = load i16, ptr %.phi.trans.insert70, align 2
  br label %127

127:                                              ; preds = %._crit_edge, %is_zip64_endhdr.exit
  %128 = phi i16 [ %96, %is_zip64_endhdr.exit ], [ %.pre71, %._crit_edge ]
  %129 = phi i16 [ %94, %is_zip64_endhdr.exit ], [ %.pre69, %._crit_edge ]
  %130 = phi i16 [ %93, %is_zip64_endhdr.exit ], [ %.pre67, %._crit_edge ]
  %131 = phi i16 [ %91, %is_zip64_endhdr.exit ], [ %.pre65, %._crit_edge ]
  %132 = phi i16 [ %90, %is_zip64_endhdr.exit ], [ %.pre63, %._crit_edge ]
  %133 = phi i16 [ %88, %is_zip64_endhdr.exit ], [ %.pre61, %._crit_edge ]
  %134 = phi i16 [ %87, %is_zip64_endhdr.exit ], [ %.pre59, %._crit_edge ]
  %135 = phi i16 [ %85, %is_zip64_endhdr.exit ], [ %.pre, %._crit_edge ]
  %.0 = phi i64 [ %33, %is_zip64_endhdr.exit ], [ %121, %._crit_edge ]
  %136 = zext i16 %135 to i64
  %137 = zext i16 %134 to i64
  %138 = shl nuw nsw i64 %137, 16
  %139 = or disjoint i64 %138, %136
  %140 = zext i16 %133 to i64
  %141 = zext i16 %132 to i64
  %142 = shl nuw i64 %141, 48
  %143 = shl nuw nsw i64 %140, 32
  %144 = or disjoint i64 %142, %143
  %145 = or disjoint i64 %139, %144
  %146 = sub nsw i64 %.0, %145
  store i64 %146, ptr %4, align 8
  %147 = zext i16 %131 to i64
  %148 = zext i16 %130 to i64
  %149 = shl nuw nsw i64 %148, 16
  %150 = or disjoint i64 %149, %147
  %151 = zext i16 %129 to i64
  %152 = zext i16 %128 to i64
  %153 = shl nuw i64 %152, 48
  %154 = shl nuw nsw i64 %151, 32
  %155 = or disjoint i64 %153, %154
  %156 = or disjoint i64 %150, %155
  %157 = sub nsw i64 %146, %156
  br label %162

readAt.exit.thread:                               ; preds = %35, %125, %123, %is_zip64_endhdr.exit.thread, %42, %readAt.exit, %32, %5
  %158 = tail call fastcc zeroext i8 @is_valid_end_header(i32 noundef %0, i64 noundef %2, i64 noundef %14, i64 noundef %22)
  %.not53 = icmp eq i8 %158, 0
  br i1 %.not53, label %163, label %159

159:                                              ; preds = %readAt.exit.thread
  %160 = sub nsw i64 %2, %14
  store i64 %160, ptr %4, align 8
  %161 = sub nsw i64 %160, %22
  br label %162

162:                                              ; preds = %159, %127
  %storemerge = phi i64 [ %161, %159 ], [ %157, %127 ]
  store i64 %storemerge, ptr %3, align 8
  br label %163

163:                                              ; preds = %readAt.exit.thread, %162
  %.045 = phi i32 [ 0, %162 ], [ -1, %readAt.exit.thread ]
  ret i32 %.045
}